; Function Attrs: mustprogress nounwind uwtable
define internal void @_ZN12_GLOBAL__N_119FileWithFixedStatusD0Ev(ptr noundef nonnull align 8 dereferenceable(104) %0) unnamed_addr #0 align 2 {
  store ptr getelementptr inbounds inrange(-16, 56) (i8, ptr @_ZTVN12_GLOBAL__N_119FileWithFixedStatusE, i64 16), ptr %0, align 8
  %2 = getelementptr inbounds nuw i8, ptr %0, i64 16
  tail call void @_ZNSt7__cxx1112basic_stringIcSt11char_traitsIcESaIcEED1Ev(ptr noundef nonnull align 8 dereferenceable(32) %2) #27
  %3 = getelementptr inbounds nuw i8, ptr %0, i64 8
  %4 = load ptr, ptr %3, align 8
  %.not.i.i = icmp eq ptr %4, null
  br i1 %.not.i.i, label %_ZN12_GLOBAL__N_119FileWithFixedStatusD2Ev.exit, label %_ZNKSt14default_deleteIN4llvm3vfs4FileEEclEPS2_.exit.i.i

_ZNKSt14default_deleteIN4llvm3vfs4FileEEclEPS2_.exit.i.i: ; preds = %1
  %5 = load ptr, ptr %4, align 8
  %6 = getelementptr inbounds i8, ptr %5, i64 8
  %7 = load ptr, ptr %6, align 8
  tail call void %7(ptr noundef nonnull align 8 dereferenceable(8) %4) #27
  br label %_ZN12_GLOBAL__N_119FileWithFixedStatusD2Ev.exit

_ZN12_GLOBAL__N_119FileWithFixedStatusD2Ev.exit:  ; preds = %1, %_ZNKSt14default_deleteIN4llvm3vfs4FileEEclEPS2_.exit.i.i
  tail call void @_ZdlPvm(ptr noundef nonnull %0, i64 noundef 104) #31
  ret void
}